; Function Attrs: mustprogress nofree norecurse nosync nounwind memory(readwrite, inaccessiblemem: none) uwtable
define dso_local void @_ZN4llvm11SlotIndexes15renumberIndexesENS_14ilist_iteratorINS_12ilist_detail12node_optionsINS_14IndexListEntryELb0ELb0EvLb0EvEELb0ELb0EEE(ptr noundef nonnull readnone align 8 dereferenceable(432) %0, ptr captures(none) %1) local_unnamed_addr #3 align 2 {
.lr.ph.i.i.i:
  %2 = load ptr, ptr %1, align 8
  %3 = getelementptr inbounds nuw i8, ptr %2, i64 24
  %4 = load i32, ptr %3, align 8
  %5 = getelementptr inbounds nuw i8, ptr %0, i64 96
  br label %6

6:                                                ; preds = %11, %.lr.ph.i.i.i
  %.sroa.04.0 = phi ptr [ %1, %.lr.ph.i.i.i ], [ %10, %11 ]
  %.0 = phi i32 [ %4, %.lr.ph.i.i.i ], [ %7, %11 ]
  %7 = add i32 %.0, 8
  %8 = getelementptr inbounds nuw i8, ptr %.sroa.04.0, i64 24
  store i32 %7, ptr %8, align 8
  %9 = getelementptr inbounds nuw i8, ptr %.sroa.04.0, i64 8
  %10 = load ptr, ptr %9, align 8
  %.not8 = icmp eq ptr %10, %5
  br i1 %.not8, label %.critedge, label %11

11:                                               ; preds = %6
  %12 = getelementptr inbounds nuw i8, ptr %10, i64 24
  %13 = load i32, ptr %12, align 8
  %.not = icmp ugt i32 %13, %7
  br i1 %.not, label %.critedge, label %6, !llvm.loop !30

.critedge:                                        ; preds = %6, %11
  ret void
}